ccopy_reg
_reconstructor
p0
(csklearn.linear_model.base
LinearRegression
p1
c__builtin__
object
p2
Ntp3
Rp4
(dp5
S'normalize'
p6
I00
sS'n_jobs'
p7
I1
sS'rank_'
p8
I4
sS'fit_intercept'
p9
I01
sS'_residues'
p10
cnumpy.core.multiarray
scalar
p11
(cnumpy
dtype
p12
(S'f8'
p13
I0
I1
tp14
Rp15
(I3
S'<'
p16
NNNI-1
I-1
I0
tp17
bS':hT\x958\xeaMA'
p18
tp19
Rp20
sS'coef_'
p21
cnumpy.core.multiarray
_reconstruct
p22
(cnumpy
ndarray
p23
(I0
tp24
S'b'
p25
tp26
Rp27
(I1
(L4L
tp28
g15
I00
S'\xf6\x1f[\x1b>6p@\x08[\x88\xcfI\xc6\xfa\xbf\x19\x94~\xeaj\xea\xe8\xbf\xa2x\xbb\xed\x01\x94\x05\xc0'
p29
tp30
bsS'_sklearn_version'
p31
S'0.19.1'
p32
sS'copy_X'
p33
I01
sS'intercept_'
p34
g11
(g15
S'\xa1\xbf\xba\x0cQ/z@'
p35
tp36
Rp37
sS'singular_'
p38
g22
(g23
(I0
tp39
g25
tp40
Rp41
(I1
(L4L
tp42
g15
I00
S'\xef\x1e\x8a\xea\x13\x1aR@\xf5p<\xa0\x87\xebM@\x90/{Gp]A@O\xb20\xb6\xa3\x927@'
p43
tp44
bsb.